target datalayout = "e-m:e-p270:32:32-p271:32:32-p272:64:64-i64:64-i128:128-f80:128-n8:16:32:64-S128"
target triple = "x86_64-pc-linux-gnu"

%struct._generic_N_Vector = type { ptr, ptr, ptr }
%struct._N_VectorContent_Serial = type { i64, i32, ptr }

; Function Attrs: nounwind uwtable
define internal i32 @fQ(double noundef %0, ptr noundef %1, ptr noundef %2, ptr noundef %3) #0 {
  %5 = alloca double, align 8
  %6 = alloca ptr, align 8
  %7 = alloca ptr, align 8
  %8 = alloca ptr, align 8
  store double %0, ptr %5, align 8, !tbaa !18
  store ptr %1, ptr %6, align 8, !tbaa !16
  store ptr %2, ptr %7, align 8, !tbaa !16
  store ptr %3, ptr %8, align 8, !tbaa !11
  %9 = load ptr, ptr %6, align 8, !tbaa !16
  %10 = getelementptr inbounds nuw %struct._generic_N_Vector, ptr %9, i32 0, i32 0
  %11 = load ptr, ptr %10, align 8, !tbaa !22
  %12 = getelementptr inbounds nuw %struct._N_VectorContent_Serial, ptr %11, i32 0, i32 2
  %13 = load ptr, ptr %12, align 8, !tbaa !25
  %14 = getelementptr inbounds double, ptr %13, i64 2
  %15 = load double, ptr %14, align 8, !tbaa !18
  %16 = load ptr, ptr %7, align 8, !tbaa !16
  %17 = getelementptr inbounds nuw %struct._generic_N_Vector, ptr %16, i32 0, i32 0
  %18 = load ptr, ptr %17, align 8, !tbaa !22
  %19 = getelementptr inbounds nuw %struct._N_VectorContent_Serial, ptr %18, i32 0, i32 2
  %20 = load ptr, ptr %19, align 8, !tbaa !25
  %21 = getelementptr inbounds double, ptr %20, i64 0
  store double %15, ptr %21, align 8, !tbaa !18
  ret i32 0
}